target datalayout = "e-m:e-p270:32:32-p271:32:32-p272:64:64-i64:64-i128:128-f80:128-n8:16:32:64-S128"
target triple = "x86_64-pc-linux-gnu"

%struct.expert_field = type { i32, i32 }

@hf_openflow_v5_bundle_prop_type = internal global i32 0, align 4
@hf_openflow_v5_bundle_prop_length = internal global i32 0, align 4
@hf_openflow_v5_bundle_prop_experimenter_experimenter = internal global i32 0, align 4
@hf_openflow_v5_bundle_prop_experimenter_exp_type = internal global i32 0, align 4
@ett_openflow_v5_bundle_prop = internal global i32 0, align 4
@ei_openflow_v5_bundle_prop_undecoded = internal global %struct.expert_field zeroinitializer, align 4
@.str.991 = private unnamed_addr constant [26 x i8] c"Unknown bundle prop body.\00", align 1
@ei_openflow_v5_length_too_short = internal global %struct.expert_field zeroinitializer, align 4
@.str.1502 = private unnamed_addr constant [12 x i8] c"Bundle prop\00", align 1
@.str.1503 = private unnamed_addr constant [31 x i8] c"Experimenter bundle prop body.\00", align 1

; Function Attrs: null_pointer_is_valid sspstrong uwtable
define internal i32 @dissect_openflow_bundle_prop_v5(ptr noundef %0, ptr noundef %1, ptr noundef %2, i32 noundef %3, i16 noundef zeroext %4) #0 {
  %6 = alloca ptr, align 8
  %7 = alloca ptr, align 8
  %8 = alloca ptr, align 8
  %9 = alloca i32, align 4
  %10 = alloca i16, align 2
  %11 = alloca ptr, align 8
  %12 = alloca ptr, align 8
  %13 = alloca i16, align 2
  %14 = alloca i16, align 2
  store ptr %0, ptr %6, align 8
  store ptr %1, ptr %7, align 8
  store ptr %2, ptr %8, align 8
  store i32 %3, ptr %9, align 4
  store i16 %4, ptr %10, align 2
  call void @llvm.lifetime.start.p0(i64 8, ptr %11) #5
  call void @llvm.lifetime.start.p0(i64 8, ptr %12) #5
  call void @llvm.lifetime.start.p0(i64 2, ptr %13) #5
  call void @llvm.lifetime.start.p0(i64 2, ptr %14) #5
  %15 = load ptr, ptr %6, align 8
  %16 = load i32, ptr %9, align 4
  %17 = call zeroext i16 @tvb_get_ntohs(ptr noundef %15, i32 noundef %16)
  store i16 %17, ptr %13, align 2
  %18 = load ptr, ptr %6, align 8
  %19 = load i32, ptr %9, align 4
  %20 = add i32 %19, 2
  %21 = call zeroext i16 @tvb_get_ntohs(ptr noundef %18, i32 noundef %20)
  store i16 %21, ptr %14, align 2
  %22 = load ptr, ptr %8, align 8
  %23 = load ptr, ptr %6, align 8
  %24 = load i32, ptr %9, align 4
  %25 = load i16, ptr %14, align 2
  %26 = zext i16 %25 to i32
  %27 = load i32, ptr @ett_openflow_v5_bundle_prop, align 4
  %28 = call ptr @proto_tree_add_subtree(ptr noundef %22, ptr noundef %23, i32 noundef %24, i32 noundef %26, i32 noundef %27, ptr noundef null, ptr noundef @.str.1502)
  store ptr %28, ptr %11, align 8
  %29 = load ptr, ptr %11, align 8
  %30 = load i32, ptr @hf_openflow_v5_bundle_prop_type, align 4
  %31 = load ptr, ptr %6, align 8
  %32 = load i32, ptr %9, align 4
  %33 = call ptr @proto_tree_add_item(ptr noundef %29, i32 noundef %30, ptr noundef %31, i32 noundef %32, i32 noundef 2, i32 noundef 0)
  %34 = load ptr, ptr %11, align 8
  %35 = load i32, ptr @hf_openflow_v5_bundle_prop_length, align 4
  %36 = load ptr, ptr %6, align 8
  %37 = load i32, ptr %9, align 4
  %38 = call ptr @proto_tree_add_item(ptr noundef %34, i32 noundef %35, ptr noundef %36, i32 noundef %37, i32 noundef 2, i32 noundef 0)
  store ptr %38, ptr %12, align 8
  %39 = load i16, ptr %13, align 2
  %40 = zext i16 %39 to i32
  switch i32 %40, label %79 [
    i32 65535, label %41
  ]

41:                                               ; preds = %5
  %42 = load i16, ptr %14, align 2
  %43 = zext i16 %42 to i32
  %44 = icmp sle i32 %43, 12
  br i1 %44, label %45, label %51

45:                                               ; preds = %41
  %46 = load ptr, ptr %7, align 8
  %47 = load ptr, ptr %12, align 8
  %48 = call ptr @expert_add_info(ptr noundef %46, ptr noundef %47, ptr noundef @ei_openflow_v5_length_too_short)
  %49 = load i16, ptr %10, align 2
  %50 = zext i16 %49 to i32
  store i32 %50, ptr %9, align 4
  br label %103

51:                                               ; preds = %41
  %52 = load ptr, ptr %8, align 8
  %53 = load i32, ptr @hf_openflow_v5_bundle_prop_experimenter_experimenter, align 4
  %54 = load ptr, ptr %6, align 8
  %55 = load i32, ptr %9, align 4
  %56 = call ptr @proto_tree_add_item(ptr noundef %52, i32 noundef %53, ptr noundef %54, i32 noundef %55, i32 noundef 4, i32 noundef 0)
  %57 = load i32, ptr %9, align 4
  %58 = add i32 %57, 4
  store i32 %58, ptr %9, align 4
  %59 = load ptr, ptr %8, align 8
  %60 = load i32, ptr @hf_openflow_v5_bundle_prop_experimenter_exp_type, align 4
  %61 = load ptr, ptr %6, align 8
  %62 = load i32, ptr %9, align 4
  %63 = call ptr @proto_tree_add_item(ptr noundef %59, i32 noundef %60, ptr noundef %61, i32 noundef %62, i32 noundef 4, i32 noundef 0)
  %64 = load i32, ptr %9, align 4
  %65 = add i32 %64, 4
  store i32 %65, ptr %9, align 4
  %66 = load ptr, ptr %8, align 8
  %67 = load ptr, ptr %7, align 8
  %68 = load ptr, ptr %6, align 8
  %69 = load i32, ptr %9, align 4
  %70 = load i16, ptr %14, align 2
  %71 = zext i16 %70 to i32
  %72 = sub i32 %71, 12
  %73 = call ptr (ptr, ptr, ptr, ptr, i32, i32, ptr, ...) @proto_tree_add_expert_format(ptr noundef %66, ptr noundef %67, ptr noundef @ei_openflow_v5_bundle_prop_undecoded, ptr noundef %68, i32 noundef %69, i32 noundef %72, ptr noundef @.str.1503)
  %74 = load i16, ptr %14, align 2
  %75 = zext i16 %74 to i32
  %76 = sub i32 %75, 12
  %77 = load i32, ptr %9, align 4
  %78 = add i32 %77, %76
  store i32 %78, ptr %9, align 4
  br label %103

79:                                               ; preds = %5
  %80 = load i16, ptr %14, align 2
  %81 = zext i16 %80 to i32
  %82 = icmp sle i32 %81, 4
  br i1 %82, label %83, label %89

83:                                               ; preds = %79
  %84 = load ptr, ptr %7, align 8
  %85 = load ptr, ptr %12, align 8
  %86 = call ptr @expert_add_info(ptr noundef %84, ptr noundef %85, ptr noundef @ei_openflow_v5_length_too_short)
  %87 = load i16, ptr %10, align 2
  %88 = zext i16 %87 to i32
  store i32 %88, ptr %9, align 4
  br label %103

89:                                               ; preds = %79
  %90 = load ptr, ptr %8, align 8
  %91 = load ptr, ptr %7, align 8
  %92 = load ptr, ptr %6, align 8
  %93 = load i32, ptr %9, align 4
  %94 = load i16, ptr %14, align 2
  %95 = zext i16 %94 to i32
  %96 = sub i32 %95, 4
  %97 = call ptr (ptr, ptr, ptr, ptr, i32, i32, ptr, ...) @proto_tree_add_expert_format(ptr noundef %90, ptr noundef %91, ptr noundef @ei_openflow_v5_bundle_prop_undecoded, ptr noundef %92, i32 noundef %93, i32 noundef %96, ptr noundef @.str.991)
  %98 = load i16, ptr %14, align 2
  %99 = zext i16 %98 to i32
  %100 = sub i32 %99, 4
  %101 = load i32, ptr %9, align 4
  %102 = add i32 %101, %100
  store i32 %102, ptr %9, align 4
  br label %103

103:                                              ; preds = %89, %83, %51, %45
  %104 = load i32, ptr %9, align 4
  call void @llvm.lifetime.end.p0(i64 2, ptr %14) #5
  call void @llvm.lifetime.end.p0(i64 2, ptr %13) #5
  call void @llvm.lifetime.end.p0(i64 8, ptr %12) #5
  call void @llvm.lifetime.end.p0(i64 8, ptr %11) #5
  ret i32 %104
}