; Function Attrs: null_pointer_is_valid sspstrong uwtable
define internal fastcc range(i32 -2147483647, 131066) i32 @dissect_openflow_bundle_prop_v5(ptr noundef %0, ptr noundef %1, ptr noundef %2, i32 noundef range(i32 -2147483648, 65535) %3, i16 noundef zeroext %4) unnamed_addr #0 {
  %6 = tail call zeroext i16 @tvb_get_ntohs(ptr noundef %0, i32 noundef %3)
  %7 = add nsw i32 %3, 2
  %8 = tail call zeroext i16 @tvb_get_ntohs(ptr noundef %0, i32 noundef %7)
  %9 = zext i16 %8 to i32
  %10 = load i32, ptr @ett_openflow_v5_bundle_prop, align 4
  %11 = tail call ptr @proto_tree_add_subtree(ptr noundef %2, ptr noundef %0, i32 noundef %3, i32 noundef %9, i32 noundef %10, ptr noundef null, ptr noundef nonnull @.str.1502)
  %12 = load i32, ptr @hf_openflow_v5_bundle_prop_type, align 4
  %13 = tail call ptr @proto_tree_add_item(ptr noundef %11, i32 noundef %12, ptr noundef %0, i32 noundef %3, i32 noundef 2, i32 noundef 0)
  %14 = load i32, ptr @hf_openflow_v5_bundle_prop_length, align 4
  %15 = tail call ptr @proto_tree_add_item(ptr noundef %11, i32 noundef %14, ptr noundef %0, i32 noundef %3, i32 noundef 2, i32 noundef 0)
  %cond = icmp eq i16 %6, -1
  br i1 %cond, label %16, label %31

16:                                               ; preds = %5
  %17 = icmp ult i16 %8, 13
  br i1 %17, label %18, label %21

18:                                               ; preds = %16
  %19 = tail call ptr @expert_add_info(ptr noundef %1, ptr noundef %15, ptr noundef nonnull @ei_openflow_v5_length_too_short)
  %20 = zext i16 %4 to i32
  br label %40

21:                                               ; preds = %16
  %22 = load i32, ptr @hf_openflow_v5_bundle_prop_experimenter_experimenter, align 4
  %23 = tail call ptr @proto_tree_add_item(ptr noundef %2, i32 noundef %22, ptr noundef %0, i32 noundef %3, i32 noundef 4, i32 noundef 0)
  %24 = add nsw i32 %3, 4
  %25 = load i32, ptr @hf_openflow_v5_bundle_prop_experimenter_exp_type, align 4
  %26 = tail call ptr @proto_tree_add_item(ptr noundef %2, i32 noundef %25, ptr noundef %0, i32 noundef %24, i32 noundef 4, i32 noundef 0)
  %27 = add nsw i32 %3, 8
  %28 = add nsw i32 %9, -12
  %29 = tail call ptr (ptr, ptr, ptr, ptr, i32, i32, ptr, ...) @proto_tree_add_expert_format(ptr noundef %2, ptr noundef %1, ptr noundef nonnull @ei_openflow_v5_bundle_prop_undecoded, ptr noundef %0, i32 noundef %27, i32 noundef %28, ptr noundef nonnull @.str.1503)
  %30 = add nsw i32 %28, %27
  br label %40

31:                                               ; preds = %5
  %32 = icmp ult i16 %8, 5
  br i1 %32, label %33, label %36

33:                                               ; preds = %31
  %34 = tail call ptr @expert_add_info(ptr noundef %1, ptr noundef %15, ptr noundef nonnull @ei_openflow_v5_length_too_short)
  %35 = zext i16 %4 to i32
  br label %40

36:                                               ; preds = %31
  %37 = add nsw i32 %9, -4
  %38 = tail call ptr (ptr, ptr, ptr, ptr, i32, i32, ptr, ...) @proto_tree_add_expert_format(ptr noundef %2, ptr noundef %1, ptr noundef nonnull @ei_openflow_v5_bundle_prop_undecoded, ptr noundef %0, i32 noundef %3, i32 noundef %37, ptr noundef nonnull @.str.991)
  %39 = add nsw i32 %37, %3
  br label %40

40:                                               ; preds = %36, %33, %21, %18
  %.0 = phi i32 [ %20, %18 ], [ %30, %21 ], [ %35, %33 ], [ %39, %36 ]
  ret i32 %.0
}